target datalayout = "e-m:e-p270:32:32-p271:32:32-p272:64:64-i64:64-i128:128-f80:128-n8:16:32:64-S128"
target triple = "x86_64-pc-linux-gnu"

%struct.hwloc_memory_tier_s = type { ptr, i64, i64, i64, i64, i64 }

; Function Attrs: nounwind uwtable
define internal i32 @compare_tiers_by_bw_and_type(ptr noundef %0, ptr noundef %1) #0 {
  %3 = alloca i32, align 4
  %4 = alloca ptr, align 8
  %5 = alloca ptr, align 8
  %6 = alloca ptr, align 8
  %7 = alloca ptr, align 8
  %8 = alloca i32, align 4
  store ptr %0, ptr %4, align 8, !tbaa !120
  store ptr %1, ptr %5, align 8, !tbaa !120
  call void @llvm.lifetime.start.p0(i64 8, ptr %6) #14
  %9 = load ptr, ptr %4, align 8, !tbaa !120
  store ptr %9, ptr %6, align 8, !tbaa !122
  call void @llvm.lifetime.start.p0(i64 8, ptr %7) #14
  %10 = load ptr, ptr %5, align 8, !tbaa !120
  store ptr %10, ptr %7, align 8, !tbaa !122
  %11 = load ptr, ptr %6, align 8, !tbaa !122
  %12 = getelementptr inbounds nuw %struct.hwloc_memory_tier_s, ptr %11, i32 0, i32 1
  %13 = load i64, ptr %12, align 8, !tbaa !131
  %14 = icmp ne i64 %13, 0
  br i1 %14, label %15, label %56

15:                                               ; preds = %2
  %16 = load ptr, ptr %7, align 8, !tbaa !122
  %17 = getelementptr inbounds nuw %struct.hwloc_memory_tier_s, ptr %16, i32 0, i32 1
  %18 = load i64, ptr %17, align 8, !tbaa !131
  %19 = icmp ne i64 %18, 0
  br i1 %19, label %20, label %56

20:                                               ; preds = %15
  %21 = load ptr, ptr %6, align 8, !tbaa !122
  %22 = getelementptr inbounds nuw %struct.hwloc_memory_tier_s, ptr %21, i32 0, i32 1
  %23 = load i64, ptr %22, align 8, !tbaa !131
  %24 = load ptr, ptr %6, align 8, !tbaa !122
  %25 = getelementptr inbounds nuw %struct.hwloc_memory_tier_s, ptr %24, i32 0, i32 2
  %26 = load i64, ptr %25, align 8, !tbaa !130
  %27 = add i64 %23, %26
  %28 = load ptr, ptr %7, align 8, !tbaa !122
  %29 = getelementptr inbounds nuw %struct.hwloc_memory_tier_s, ptr %28, i32 0, i32 1
  %30 = load i64, ptr %29, align 8, !tbaa !131
  %31 = load ptr, ptr %7, align 8, !tbaa !122
  %32 = getelementptr inbounds nuw %struct.hwloc_memory_tier_s, ptr %31, i32 0, i32 2
  %33 = load i64, ptr %32, align 8, !tbaa !130
  %34 = add i64 %30, %33
  %35 = icmp ugt i64 %27, %34
  br i1 %35, label %36, label %37

36:                                               ; preds = %20
  store i32 -1, ptr %3, align 4
  store i32 1, ptr %8, align 4
  br label %74

37:                                               ; preds = %20
  %38 = load ptr, ptr %6, align 8, !tbaa !122
  %39 = getelementptr inbounds nuw %struct.hwloc_memory_tier_s, ptr %38, i32 0, i32 1
  %40 = load i64, ptr %39, align 8, !tbaa !131
  %41 = load ptr, ptr %6, align 8, !tbaa !122
  %42 = getelementptr inbounds nuw %struct.hwloc_memory_tier_s, ptr %41, i32 0, i32 2
  %43 = load i64, ptr %42, align 8, !tbaa !130
  %44 = add i64 %40, %43
  %45 = load ptr, ptr %7, align 8, !tbaa !122
  %46 = getelementptr inbounds nuw %struct.hwloc_memory_tier_s, ptr %45, i32 0, i32 1
  %47 = load i64, ptr %46, align 8, !tbaa !131
  %48 = load ptr, ptr %7, align 8, !tbaa !122
  %49 = getelementptr inbounds nuw %struct.hwloc_memory_tier_s, ptr %48, i32 0, i32 2
  %50 = load i64, ptr %49, align 8, !tbaa !130
  %51 = add i64 %47, %50
  %52 = icmp ult i64 %44, %51
  br i1 %52, label %53, label %54

53:                                               ; preds = %37
  store i32 1, ptr %3, align 4
  store i32 1, ptr %8, align 4
  br label %74

54:                                               ; preds = %37
  br label %55

55:                                               ; preds = %54
  br label %56

56:                                               ; preds = %55, %15, %2
  %57 = load ptr, ptr %6, align 8, !tbaa !122
  %58 = getelementptr inbounds nuw %struct.hwloc_memory_tier_s, ptr %57, i32 0, i32 5
  %59 = load i64, ptr %58, align 8, !tbaa !129
  %60 = load ptr, ptr %7, align 8, !tbaa !122
  %61 = getelementptr inbounds nuw %struct.hwloc_memory_tier_s, ptr %60, i32 0, i32 5
  %62 = load i64, ptr %61, align 8, !tbaa !129
  %63 = icmp ne i64 %59, %62
  br i1 %63, label %64, label %73

64:                                               ; preds = %56
  %65 = load ptr, ptr %6, align 8, !tbaa !122
  %66 = getelementptr inbounds nuw %struct.hwloc_memory_tier_s, ptr %65, i32 0, i32 5
  %67 = load i64, ptr %66, align 8, !tbaa !129
  %68 = load ptr, ptr %7, align 8, !tbaa !122
  %69 = getelementptr inbounds nuw %struct.hwloc_memory_tier_s, ptr %68, i32 0, i32 5
  %70 = load i64, ptr %69, align 8, !tbaa !129
  %71 = sub i64 %67, %70
  %72 = trunc i64 %71 to i32
  store i32 %72, ptr %3, align 4
  store i32 1, ptr %8, align 4
  br label %74

73:                                               ; preds = %56
  store i32 0, ptr %3, align 4
  store i32 1, ptr %8, align 4
  br label %74

74:                                               ; preds = %73, %64, %53, %36
  call void @llvm.lifetime.end.p0(i64 8, ptr %7) #14
  call void @llvm.lifetime.end.p0(i64 8, ptr %6) #14
  %75 = load i32, ptr %3, align 4
  ret i32 %75
}