; Function Attrs: mustprogress nofree norecurse nosync nounwind willreturn memory(argmem: read) uwtable
define internal i32 @compare_tiers_by_bw_and_type(ptr noundef readonly captures(none) %0, ptr noundef readonly captures(none) %1) #20 {
  %3 = getelementptr inbounds nuw i8, ptr %0, i64 8
  %4 = load i64, ptr %3, align 8, !tbaa !131
  %.not = icmp eq i64 %4, 0
  br i1 %.not, label %18, label %5

5:                                                ; preds = %2
  %6 = getelementptr inbounds nuw i8, ptr %1, i64 8
  %7 = load i64, ptr %6, align 8, !tbaa !131
  %.not22 = icmp eq i64 %7, 0
  br i1 %.not22, label %18, label %8

8:                                                ; preds = %5
  %9 = getelementptr inbounds nuw i8, ptr %0, i64 16
  %10 = load i64, ptr %9, align 8, !tbaa !132
  %11 = add i64 %10, %4
  %12 = getelementptr inbounds nuw i8, ptr %1, i64 16
  %13 = load i64, ptr %12, align 8, !tbaa !132
  %14 = add i64 %13, %7
  %15 = icmp ugt i64 %11, %14
  br i1 %15, label %26, label %16

16:                                               ; preds = %8
  %17 = icmp ult i64 %11, %14
  br i1 %17, label %26, label %18

18:                                               ; preds = %16, %5, %2
  %19 = getelementptr inbounds nuw i8, ptr %0, i64 40
  %20 = load i64, ptr %19, align 8, !tbaa !112
  %21 = getelementptr inbounds nuw i8, ptr %1, i64 40
  %22 = load i64, ptr %21, align 8, !tbaa !112
  %.not23 = icmp eq i64 %20, %22
  br i1 %.not23, label %26, label %23

23:                                               ; preds = %18
  %24 = sub i64 %20, %22
  %25 = trunc i64 %24 to i32
  br label %26

26:                                               ; preds = %18, %16, %8, %23
  %.0 = phi i32 [ %25, %23 ], [ -1, %8 ], [ 1, %16 ], [ 0, %18 ]
  ret i32 %.0
}